target datalayout = "e-m:e-p270:32:32-p271:32:32-p272:64:64-i64:64-i128:128-f80:128-n8:16:32:64-S128"
target triple = "x86_64-pc-linux-gnu"

%struct.UConverterMBCSTable = type { i8, i8, i8, i32, ptr, ptr, ptr, ptr, ptr, ptr, [64 x i16], ptr, ptr, i32, i8, i8, i8, i16, i32, ptr, ptr, ptr, ptr }

; Function Attrs: mustprogress uwtable
define internal noundef signext i8 @_ZL7enumToUP19UConverterMBCSTablePaijjPFaPKvjPiES3_P10UErrorCode(ptr noundef %0, ptr noundef %1, i32 noundef %2, i32 noundef %3, i32 noundef %4, ptr noundef %5, ptr noundef %6, ptr noundef %7) #0 {
  %9 = alloca i8, align 1
  %10 = alloca ptr, align 8
  %11 = alloca ptr, align 8
  %12 = alloca i32, align 4
  %13 = alloca i32, align 4
  %14 = alloca i32, align 4
  %15 = alloca ptr, align 8
  %16 = alloca ptr, align 8
  %17 = alloca ptr, align 8
  %18 = alloca [32 x i32], align 16
  %19 = alloca ptr, align 8
  %20 = alloca ptr, align 8
  %21 = alloca i32, align 4
  %22 = alloca i32, align 4
  %23 = alloca i32, align 4
  %24 = alloca i32, align 4
  %25 = alloca i32, align 4
  %26 = alloca i32, align 4
  %27 = alloca i32, align 4
  %28 = alloca i32, align 4
  %29 = alloca i32, align 4
  %30 = alloca i32, align 4
  store ptr %0, ptr %10, align 8, !tbaa !15
  store ptr %1, ptr %11, align 8, !tbaa !39
  store i32 %2, ptr %12, align 4, !tbaa !28
  store i32 %3, ptr %13, align 4, !tbaa !28
  store i32 %4, ptr %14, align 4, !tbaa !28
  store ptr %5, ptr %15, align 8, !tbaa !14
  store ptr %6, ptr %16, align 8, !tbaa !14
  store ptr %7, ptr %17, align 8, !tbaa !14
  call void @llvm.lifetime.start.p0(i64 128, ptr %18) #10
  call void @llvm.lifetime.start.p0(i64 8, ptr %19) #10
  call void @llvm.lifetime.start.p0(i64 8, ptr %20) #10
  call void @llvm.lifetime.start.p0(i64 4, ptr %21) #10
  call void @llvm.lifetime.start.p0(i64 4, ptr %22) #10
  call void @llvm.lifetime.start.p0(i64 4, ptr %23) #10
  %31 = load ptr, ptr %10, align 8, !tbaa !15
  %32 = getelementptr inbounds nuw %struct.UConverterMBCSTable, ptr %31, i32 0, i32 4
  %33 = load ptr, ptr %32, align 8, !tbaa !165
  %34 = load i32, ptr %12, align 4, !tbaa !28
  %35 = sext i32 %34 to i64
  %36 = getelementptr inbounds [256 x i32], ptr %33, i64 %35
  %37 = getelementptr inbounds [256 x i32], ptr %36, i64 0, i64 0
  store ptr %37, ptr %19, align 8, !tbaa !41
  %38 = load ptr, ptr %10, align 8, !tbaa !15
  %39 = getelementptr inbounds nuw %struct.UConverterMBCSTable, ptr %38, i32 0, i32 6
  %40 = load ptr, ptr %39, align 8, !tbaa !174
  store ptr %40, ptr %20, align 8, !tbaa !24
  %41 = load i32, ptr %14, align 4, !tbaa !28
  %42 = shl i32 %41, 8
  store i32 %42, ptr %14, align 4, !tbaa !28
  store i32 -1, ptr %21, align 4, !tbaa !28
  %43 = load ptr, ptr %11, align 8, !tbaa !39
  %44 = load i32, ptr %12, align 4, !tbaa !28
  %45 = sext i32 %44 to i64
  %46 = getelementptr inbounds i8, ptr %43, i64 %45
  %47 = load i8, ptr %46, align 1, !tbaa !40
  %48 = sext i8 %47 to i32
  %49 = and i32 %48, 56
  %50 = shl i32 %49, 2
  store i32 %50, ptr %22, align 4, !tbaa !28
  %51 = load i32, ptr %22, align 4, !tbaa !28
  %52 = icmp eq i32 %51, 0
  br i1 %52, label %53, label %63

53:                                               ; preds = %8
  %54 = load ptr, ptr %11, align 8, !tbaa !39
  %55 = load i32, ptr %12, align 4, !tbaa !28
  %56 = sext i32 %55 to i64
  %57 = getelementptr inbounds i8, ptr %54, i64 %56
  %58 = load i8, ptr %57, align 1, !tbaa !40
  %59 = sext i8 %58 to i32
  %60 = icmp sge i32 %59, 64
  br i1 %60, label %61, label %63

61:                                               ; preds = %53
  %62 = getelementptr inbounds [32 x i32], ptr %18, i64 0, i64 0
  store i32 -1, ptr %62, align 16, !tbaa !28
  store i32 1, ptr %22, align 4, !tbaa !28
  br label %63

63:                                               ; preds = %61, %53, %8
  %64 = load ptr, ptr %11, align 8, !tbaa !39
  %65 = load i32, ptr %12, align 4, !tbaa !28
  %66 = sext i32 %65 to i64
  %67 = getelementptr inbounds i8, ptr %64, i64 %66
  %68 = load i8, ptr %67, align 1, !tbaa !40
  %69 = sext i8 %68 to i32
  %70 = and i32 %69, 7
  %71 = add nsw i32 %70, 1
  %72 = shl i32 %71, 5
  store i32 %72, ptr %23, align 4, !tbaa !28
  br label %73

73:                                               ; preds = %243, %63
  %74 = load i32, ptr %22, align 4, !tbaa !28
  %75 = load i32, ptr %23, align 4, !tbaa !28
  %76 = icmp slt i32 %74, %75
  br i1 %76, label %77, label %244

77:                                               ; preds = %73
  call void @llvm.lifetime.start.p0(i64 4, ptr %24) #10
  %78 = load ptr, ptr %19, align 8, !tbaa !41
  %79 = load i32, ptr %22, align 4, !tbaa !28
  %80 = sext i32 %79 to i64
  %81 = getelementptr inbounds i32, ptr %78, i64 %80
  %82 = load i32, ptr %81, align 4, !tbaa !28
  store i32 %82, ptr %24, align 4, !tbaa !28
  %83 = load i32, ptr %24, align 4, !tbaa !28
  %84 = icmp sge i32 %83, 0
  br i1 %84, label %85, label %121

85:                                               ; preds = %77
  call void @llvm.lifetime.start.p0(i64 4, ptr %25) #10
  %86 = load i32, ptr %24, align 4, !tbaa !28
  %87 = lshr i32 %86, 24
  store i32 %87, ptr %25, align 4, !tbaa !28
  %88 = load ptr, ptr %11, align 8, !tbaa !39
  %89 = load i32, ptr %25, align 4, !tbaa !28
  %90 = sext i32 %89 to i64
  %91 = getelementptr inbounds i8, ptr %88, i64 %90
  %92 = load i8, ptr %91, align 1, !tbaa !40
  %93 = sext i8 %92 to i32
  %94 = icmp sge i32 %93, 0
  br i1 %94, label %95, label %113

95:                                               ; preds = %85
  %96 = load ptr, ptr %10, align 8, !tbaa !15
  %97 = load ptr, ptr %11, align 8, !tbaa !39
  %98 = load i32, ptr %25, align 4, !tbaa !28
  %99 = load i32, ptr %13, align 4, !tbaa !28
  %100 = load i32, ptr %24, align 4, !tbaa !28
  %101 = and i32 %100, 16777215
  %102 = add i32 %99, %101
  %103 = load i32, ptr %14, align 4, !tbaa !28
  %104 = load i32, ptr %22, align 4, !tbaa !28
  %105 = or i32 %103, %104
  %106 = load ptr, ptr %15, align 8, !tbaa !14
  %107 = load ptr, ptr %16, align 8, !tbaa !14
  %108 = load ptr, ptr %17, align 8, !tbaa !14
  %109 = call noundef signext i8 @_ZL7enumToUP19UConverterMBCSTablePaijjPFaPKvjPiES3_P10UErrorCode(ptr noundef %96, ptr noundef %97, i32 noundef %98, i32 noundef %102, i32 noundef %105, ptr noundef %106, ptr noundef %107, ptr noundef %108)
  %110 = icmp ne i8 %109, 0
  br i1 %110, label %112, label %111

111:                                              ; preds = %95
  store i8 0, ptr %9, align 1
  store i32 1, ptr %26, align 4
  br label %118

112:                                              ; preds = %95
  br label %113

113:                                              ; preds = %112, %85
  %114 = load i32, ptr %22, align 4, !tbaa !28
  %115 = and i32 %114, 31
  %116 = sext i32 %115 to i64
  %117 = getelementptr inbounds [32 x i32], ptr %18, i64 0, i64 %116
  store i32 -1, ptr %117, align 4, !tbaa !28
  store i32 0, ptr %26, align 4
  br label %118

118:                                              ; preds = %113, %111
  call void @llvm.lifetime.end.p0(i64 4, ptr %25) #10
  %119 = load i32, ptr %26, align 4
  switch i32 %119, label %241 [
    i32 0, label %120
  ]

120:                                              ; preds = %118
  br label %219

121:                                              ; preds = %77
  call void @llvm.lifetime.start.p0(i64 4, ptr %27) #10
  call void @llvm.lifetime.start.p0(i64 4, ptr %28) #10
  %122 = load i32, ptr %24, align 4, !tbaa !28
  %123 = lshr i32 %122, 20
  %124 = and i32 %123, 15
  store i32 %124, ptr %28, align 4, !tbaa !28
  %125 = load i32, ptr %28, align 4, !tbaa !28
  %126 = icmp eq i32 %125, 0
  br i1 %126, label %127, label %131

127:                                              ; preds = %121
  %128 = load i32, ptr %24, align 4, !tbaa !28
  %129 = trunc i32 %128 to i16
  %130 = zext i16 %129 to i32
  store i32 %130, ptr %27, align 4, !tbaa !28
  br label %210

131:                                              ; preds = %121
  %132 = load i32, ptr %28, align 4, !tbaa !28
  %133 = icmp eq i32 %132, 4
  br i1 %133, label %134, label %151

134:                                              ; preds = %131
  call void @llvm.lifetime.start.p0(i64 4, ptr %29) #10
  %135 = load i32, ptr %13, align 4, !tbaa !28
  %136 = load i32, ptr %24, align 4, !tbaa !28
  %137 = trunc i32 %136 to i16
  %138 = zext i16 %137 to i32
  %139 = add i32 %135, %138
  store i32 %139, ptr %29, align 4, !tbaa !28
  %140 = load ptr, ptr %20, align 8, !tbaa !24
  %141 = load i32, ptr %29, align 4, !tbaa !28
  %142 = sext i32 %141 to i64
  %143 = getelementptr inbounds i16, ptr %140, i64 %142
  %144 = load i16, ptr %143, align 2, !tbaa !26
  %145 = zext i16 %144 to i32
  store i32 %145, ptr %27, align 4, !tbaa !28
  %146 = load i32, ptr %27, align 4, !tbaa !28
  %147 = icmp slt i32 %146, 65534
  br i1 %147, label %148, label %149

148:                                              ; preds = %134
  br label %150

149:                                              ; preds = %134
  store i32 -1, ptr %27, align 4, !tbaa !28
  br label %150

150:                                              ; preds = %149, %148
  call void @llvm.lifetime.end.p0(i64 4, ptr %29) #10
  br label %209

151:                                              ; preds = %131
  %152 = load i32, ptr %28, align 4, !tbaa !28
  %153 = icmp eq i32 %152, 5
  br i1 %153, label %154, label %199

154:                                              ; preds = %151
  call void @llvm.lifetime.start.p0(i64 4, ptr %30) #10
  %155 = load i32, ptr %13, align 4, !tbaa !28
  %156 = load i32, ptr %24, align 4, !tbaa !28
  %157 = trunc i32 %156 to i16
  %158 = zext i16 %157 to i32
  %159 = add i32 %155, %158
  store i32 %159, ptr %30, align 4, !tbaa !28
  %160 = load ptr, ptr %20, align 8, !tbaa !24
  %161 = load i32, ptr %30, align 4, !tbaa !28
  %162 = add nsw i32 %161, 1
  store i32 %162, ptr %30, align 4, !tbaa !28
  %163 = sext i32 %161 to i64
  %164 = getelementptr inbounds i16, ptr %160, i64 %163
  %165 = load i16, ptr %164, align 2, !tbaa !26
  %166 = zext i16 %165 to i32
  store i32 %166, ptr %27, align 4, !tbaa !28
  %167 = load i32, ptr %27, align 4, !tbaa !28
  %168 = icmp slt i32 %167, 55296
  br i1 %168, label %169, label %170

169:                                              ; preds = %154
  br label %198

170:                                              ; preds = %154
  %171 = load i32, ptr %27, align 4, !tbaa !28
  %172 = icmp sle i32 %171, 56319
  br i1 %172, label %173, label %185

173:                                              ; preds = %170
  %174 = load i32, ptr %27, align 4, !tbaa !28
  %175 = and i32 %174, 1023
  %176 = shl i32 %175, 10
  %177 = load ptr, ptr %20, align 8, !tbaa !24
  %178 = load i32, ptr %30, align 4, !tbaa !28
  %179 = sext i32 %178 to i64
  %180 = getelementptr inbounds i16, ptr %177, i64 %179
  %181 = load i16, ptr %180, align 2, !tbaa !26
  %182 = zext i16 %181 to i32
  %183 = add nsw i32 %176, %182
  %184 = add nsw i32 %183, 9216
  store i32 %184, ptr %27, align 4, !tbaa !28
  br label %197

185:                                              ; preds = %170
  %186 = load i32, ptr %27, align 4, !tbaa !28
  %187 = icmp eq i32 %186, 57344
  br i1 %187, label %188, label %195

188:                                              ; preds = %185
  %189 = load ptr, ptr %20, align 8, !tbaa !24
  %190 = load i32, ptr %30, align 4, !tbaa !28
  %191 = sext i32 %190 to i64
  %192 = getelementptr inbounds i16, ptr %189, i64 %191
  %193 = load i16, ptr %192, align 2, !tbaa !26
  %194 = zext i16 %193 to i32
  store i32 %194, ptr %27, align 4, !tbaa !28
  br label %196

195:                                              ; preds = %185
  store i32 -1, ptr %27, align 4, !tbaa !28
  br label %196

196:                                              ; preds = %195, %188
  br label %197

197:                                              ; preds = %196, %173
  br label %198

198:                                              ; preds = %197, %169
  call void @llvm.lifetime.end.p0(i64 4, ptr %30) #10
  br label %208

199:                                              ; preds = %151
  %200 = load i32, ptr %28, align 4, !tbaa !28
  %201 = icmp eq i32 %200, 1
  br i1 %201, label %202, label %206

202:                                              ; preds = %199
  %203 = load i32, ptr %24, align 4, !tbaa !28
  %204 = and i32 %203, 1048575
  %205 = add nsw i32 %204, 65536
  store i32 %205, ptr %27, align 4, !tbaa !28
  br label %207

206:                                              ; preds = %199
  store i32 -1, ptr %27, align 4, !tbaa !28
  br label %207

207:                                              ; preds = %206, %202
  br label %208

208:                                              ; preds = %207, %198
  br label %209

209:                                              ; preds = %208, %150
  br label %210

210:                                              ; preds = %209, %127
  %211 = load i32, ptr %27, align 4, !tbaa !28
  %212 = load i32, ptr %22, align 4, !tbaa !28
  %213 = and i32 %212, 31
  %214 = sext i32 %213 to i64
  %215 = getelementptr inbounds [32 x i32], ptr %18, i64 0, i64 %214
  store i32 %211, ptr %215, align 4, !tbaa !28
  %216 = load i32, ptr %27, align 4, !tbaa !28
  %217 = load i32, ptr %21, align 4, !tbaa !28
  %218 = and i32 %217, %216
  store i32 %218, ptr %21, align 4, !tbaa !28
  call void @llvm.lifetime.end.p0(i64 4, ptr %28) #10
  call void @llvm.lifetime.end.p0(i64 4, ptr %27) #10
  br label %219

219:                                              ; preds = %210, %120
  %220 = load i32, ptr %22, align 4, !tbaa !28
  %221 = add nsw i32 %220, 1
  store i32 %221, ptr %22, align 4, !tbaa !28
  %222 = and i32 %221, 31
  %223 = icmp eq i32 %222, 0
  br i1 %223, label %224, label %240

224:                                              ; preds = %219
  %225 = load i32, ptr %21, align 4, !tbaa !28
  %226 = icmp sge i32 %225, 0
  br i1 %226, label %227, label %239

227:                                              ; preds = %224
  %228 = load ptr, ptr %15, align 8, !tbaa !14
  %229 = load ptr, ptr %16, align 8, !tbaa !14
  %230 = load i32, ptr %14, align 4, !tbaa !28
  %231 = load i32, ptr %22, align 4, !tbaa !28
  %232 = sub nsw i32 %231, 32
  %233 = or i32 %230, %232
  %234 = getelementptr inbounds [32 x i32], ptr %18, i64 0, i64 0
  %235 = call noundef signext i8 %228(ptr noundef %229, i32 noundef %233, ptr noundef %234)
  %236 = icmp ne i8 %235, 0
  br i1 %236, label %238, label %237

237:                                              ; preds = %227
  store i8 0, ptr %9, align 1
  store i32 1, ptr %26, align 4
  br label %241

238:                                              ; preds = %227
  store i32 -1, ptr %21, align 4, !tbaa !28
  br label %239

239:                                              ; preds = %238, %224
  br label %240

240:                                              ; preds = %239, %219
  store i32 0, ptr %26, align 4
  br label %241

241:                                              ; preds = %240, %237, %118
  call void @llvm.lifetime.end.p0(i64 4, ptr %24) #10
  %242 = load i32, ptr %26, align 4
  switch i32 %242, label %245 [
    i32 0, label %243
  ]

243:                                              ; preds = %241
  br label %73, !llvm.loop !207

244:                                              ; preds = %73
  store i8 1, ptr %9, align 1
  store i32 1, ptr %26, align 4
  br label %245

245:                                              ; preds = %244, %241
  call void @llvm.lifetime.end.p0(i64 4, ptr %23) #10
  call void @llvm.lifetime.end.p0(i64 4, ptr %22) #10
  call void @llvm.lifetime.end.p0(i64 4, ptr %21) #10
  call void @llvm.lifetime.end.p0(i64 8, ptr %20) #10
  call void @llvm.lifetime.end.p0(i64 8, ptr %19) #10
  call void @llvm.lifetime.end.p0(i64 128, ptr %18) #10
  %246 = load i8, ptr %9, align 1
  ret i8 %246
}