; Function Attrs: mustprogress nofree nosync nounwind memory(readwrite, inaccessiblemem: none) uwtable
define internal fastcc void @_ZL7enumToUP19UConverterMBCSTablePaijjPFaPKvjPiES3_P10UErrorCode(ptr noundef readonly captures(none) %0, ptr noundef nonnull readonly captures(none) %1, i32 noundef range(i32 -2147483648, 255) %2, i32 noundef %3, i32 noundef %4, ptr noundef readonly captures(none) %5) unnamed_addr #6 {
  %7 = alloca [32 x i32], align 16
  call void @llvm.lifetime.start.p0(i64 128, ptr nonnull %7) #15
  %8 = getelementptr inbounds nuw i8, ptr %0, i64 8
  %9 = load ptr, ptr %8, align 8, !tbaa !138
  %10 = sext i32 %2 to i64
  %11 = getelementptr inbounds [256 x i32], ptr %9, i64 %10
  %12 = getelementptr inbounds nuw i8, ptr %0, i64 24
  %13 = load ptr, ptr %12, align 8, !tbaa !147
  %14 = shl i32 %4, 8
  %15 = getelementptr inbounds i8, ptr %1, i64 %10
  %16 = load i8, ptr %15, align 1, !tbaa !28
  %17 = sext i8 %16 to i32
  %18 = shl nsw i32 %17, 2
  %19 = and i32 %18, 224
  %20 = icmp eq i32 %19, 0
  br i1 %20, label %21, label %27

21:                                               ; preds = %6
  %22 = icmp sgt i8 %16, 63
  br i1 %22, label %26, label %.thread

.thread:                                          ; preds = %21
  %23 = and i8 %16, 7
  %narrow10 = add nuw nsw i8 %23, 1
  %24 = zext nneg i8 %narrow10 to i32
  %25 = shl nuw nsw i32 %24, 5
  br label %.lr.ph

26:                                               ; preds = %21
  store i32 -1, ptr %7, align 16, !tbaa !27
  br label %27

27:                                               ; preds = %26, %6
  %.076 = phi i32 [ 1, %26 ], [ %19, %6 ]
  %28 = and i8 %16, 7
  %narrow = add nuw nsw i8 %28, 1
  %29 = zext nneg i8 %narrow to i32
  %30 = shl nuw nsw i32 %29, 5
  %31 = icmp samesign ult i32 %.076, %30
  br i1 %31, label %.lr.ph, label %_ZL20writeStage3RoundtripPKvjPi.exit.thread

.lr.ph:                                           ; preds = %.thread, %27
  %32 = phi i32 [ %25, %.thread ], [ %30, %27 ]
  %.07612 = phi i32 [ 0, %.thread ], [ %.076, %27 ]
  %invariant.op13 = add i32 %3, 1
  %33 = getelementptr inbounds nuw i8, ptr %5, i64 40
  %34 = getelementptr inbounds nuw i8, ptr %5, i64 184
  %35 = getelementptr inbounds nuw i8, ptr %5, i64 204
  %36 = zext nneg i32 %.07612 to i64
  %37 = zext nneg i32 %32 to i64
  br label %38

38:                                               ; preds = %.lr.ph, %_ZL20writeStage3RoundtripPKvjPi.exit
  %indvars.iv = phi i64 [ %36, %.lr.ph ], [ %indvars.iv.next, %_ZL20writeStage3RoundtripPKvjPi.exit ]
  %.0725 = phi i32 [ -1, %.lr.ph ], [ %.173, %_ZL20writeStage3RoundtripPKvjPi.exit ]
  %39 = getelementptr inbounds nuw i32, ptr %11, i64 %indvars.iv
  %40 = load i32, ptr %39, align 4, !tbaa !27
  %41 = icmp sgt i32 %40, -1
  br i1 %41, label %42, label %55

42:                                               ; preds = %38
  %43 = lshr i32 %40, 24
  %44 = zext nneg i32 %43 to i64
  %45 = getelementptr inbounds nuw i8, ptr %1, i64 %44
  %46 = load i8, ptr %45, align 1, !tbaa !28
  %47 = icmp sgt i8 %46, -1
  br i1 %47, label %48, label %.critedge

48:                                               ; preds = %42
  %49 = and i32 %40, 16777215
  %50 = add i32 %49, %3
  %51 = trunc nuw nsw i64 %indvars.iv to i32
  %52 = or i32 %14, %51
  tail call fastcc void @_ZL7enumToUP19UConverterMBCSTablePaijjPFaPKvjPiES3_P10UErrorCode(ptr noundef %0, ptr noundef %1, i32 noundef %43, i32 noundef %50, i32 noundef %52, ptr noundef %5)
  br label %.critedge

.critedge:                                        ; preds = %42, %48
  %53 = and i64 %indvars.iv, 31
  %54 = getelementptr inbounds nuw [32 x i32], ptr %7, i64 0, i64 %53
  store i32 -1, ptr %54, align 4, !tbaa !27
  br label %101

55:                                               ; preds = %38
  %56 = lshr i32 %40, 20
  %57 = and i32 %56, 15
  switch i32 %57, label %97 [
    i32 0, label %58
    i32 4, label %60
    i32 5, label %68
    i32 1, label %94
  ]

58:                                               ; preds = %55
  %59 = and i32 %40, 65535
  br label %97

60:                                               ; preds = %55
  %61 = and i32 %40, 65535
  %62 = add i32 %61, %3
  %63 = sext i32 %62 to i64
  %64 = getelementptr inbounds i16, ptr %13, i64 %63
  %65 = load i16, ptr %64, align 2, !tbaa !17
  %66 = zext i16 %65 to i32
  %67 = icmp ult i16 %65, -2
  %spec.store.select = select i1 %67, i32 %66, i32 -1
  br label %97

68:                                               ; preds = %55
  %69 = and i32 %40, 65535
  %70 = add i32 %69, %3
  %.reass = add i32 %69, %invariant.op13
  %71 = sext i32 %70 to i64
  %72 = getelementptr inbounds i16, ptr %13, i64 %71
  %73 = load i16, ptr %72, align 2, !tbaa !17
  %74 = zext i16 %73 to i32
  %75 = icmp ult i16 %73, -10240
  br i1 %75, label %97, label %76

76:                                               ; preds = %68
  %77 = icmp samesign ult i16 %73, -9216
  br i1 %77, label %78, label %87

78:                                               ; preds = %76
  %79 = shl nuw nsw i32 %74, 10
  %80 = and i32 %79, 1047552
  %81 = sext i32 %.reass to i64
  %82 = getelementptr inbounds i16, ptr %13, i64 %81
  %83 = load i16, ptr %82, align 2, !tbaa !17
  %84 = zext i16 %83 to i32
  %85 = add nuw nsw i32 %80, 9216
  %86 = add nuw nsw i32 %85, %84
  br label %97

87:                                               ; preds = %76
  %88 = icmp eq i16 %73, -8192
  br i1 %88, label %89, label %97

89:                                               ; preds = %87
  %90 = sext i32 %.reass to i64
  %91 = getelementptr inbounds i16, ptr %13, i64 %90
  %92 = load i16, ptr %91, align 2, !tbaa !17
  %93 = zext i16 %92 to i32
  br label %97

94:                                               ; preds = %55
  %95 = and i32 %40, 1048575
  %96 = add nuw nsw i32 %95, 65536
  br label %97

97:                                               ; preds = %55, %68, %89, %78, %87, %60, %94, %58
  %.068 = phi i32 [ %59, %58 ], [ %spec.store.select, %60 ], [ %96, %94 ], [ %74, %68 ], [ %86, %78 ], [ %93, %89 ], [ -1, %87 ], [ -1, %55 ]
  %98 = and i64 %indvars.iv, 31
  %99 = getelementptr inbounds nuw [32 x i32], ptr %7, i64 0, i64 %98
  store i32 %.068, ptr %99, align 4, !tbaa !27
  %100 = and i32 %.068, %.0725
  br label %101

101:                                              ; preds = %.critedge, %97
  %.274 = phi i32 [ %100, %97 ], [ %.0725, %.critedge ]
  %indvars.iv.next = add nuw nsw i64 %indvars.iv, 1
  %102 = and i64 %indvars.iv.next, 31
  %103 = icmp eq i64 %102, 0
  %104 = icmp sgt i32 %.274, -1
  %or.cond = select i1 %103, i1 %104, i1 false
  br i1 %or.cond, label %105, label %_ZL20writeStage3RoundtripPKvjPi.exit

105:                                              ; preds = %101
  %106 = trunc i64 %indvars.iv to i32
  %107 = add i32 %106, -31
  %108 = or i32 %107, %14
  %109 = load ptr, ptr %33, align 8, !tbaa !3
  %110 = load ptr, ptr %34, align 8, !tbaa !16
  %111 = load i8, ptr %35, align 4, !tbaa !15
  switch i8 %111, label %.preheader [
    i8 8, label %112
    i8 9, label %120
  ]

112:                                              ; preds = %105
  %113 = icmp ult i32 %108, 65536
  br i1 %113, label %.preheader, label %114

114:                                              ; preds = %112
  %115 = icmp ult i32 %108, 9371648
  br i1 %115, label %116, label %118

116:                                              ; preds = %114
  %117 = and i32 %108, 32767
  br label %.preheader

118:                                              ; preds = %114
  %119 = and i32 %108, 65407
  br label %.preheader

120:                                              ; preds = %105
  %121 = icmp ult i32 %108, 16777216
  br i1 %121, label %.preheader, label %122

122:                                              ; preds = %120
  %123 = icmp ult i32 %108, -1895825408
  br i1 %123, label %124, label %126

124:                                              ; preds = %122
  %125 = and i32 %108, 8388607
  br label %.preheader

126:                                              ; preds = %122
  %127 = and i32 %108, 16744447
  br label %.preheader

.preheader:                                       ; preds = %126, %124, %120, %118, %116, %112, %105
  %.146.i.ph = phi i32 [ %108, %105 ], [ %108, %112 ], [ %117, %116 ], [ %119, %118 ], [ %108, %120 ], [ %125, %124 ], [ %127, %126 ]
  br label %128

128:                                              ; preds = %.preheader, %171
  %indvars.iv.i = phi i64 [ %indvars.iv.next.i, %171 ], [ 0, %.preheader ]
  %.146.i = phi i32 [ %172, %171 ], [ %.146.i.ph, %.preheader ]
  %129 = getelementptr inbounds nuw i32, ptr %7, i64 %indvars.iv.i
  %130 = load i32, ptr %129, align 4, !tbaa !27
  %131 = icmp slt i32 %130, 0
  br i1 %131, label %171, label %132

132:                                              ; preds = %128
  %133 = lshr i32 %130, 10
  %134 = zext nneg i32 %133 to i64
  %135 = getelementptr inbounds nuw i16, ptr %109, i64 %134
  %136 = load i16, ptr %135, align 2, !tbaa !17
  %137 = zext i16 %136 to i64
  %138 = getelementptr inbounds nuw i32, ptr %109, i64 %137
  %139 = lshr i32 %130, 4
  %140 = and i32 %139, 63
  %141 = zext nneg i32 %140 to i64
  %142 = getelementptr inbounds nuw i32, ptr %138, i64 %141
  %143 = load i32, ptr %142, align 4, !tbaa !27
  %144 = shl i32 %143, 4
  %145 = and i32 %144, 1048560
  %146 = and i32 %130, 15
  %147 = or disjoint i32 %145, %146
  %148 = load i8, ptr %35, align 4, !tbaa !15
  switch i8 %148, label %163 [
    i8 2, label %149
    i8 9, label %149
    i8 3, label %160
  ]

149:                                              ; preds = %132, %132
  %150 = mul nuw nsw i32 %147, 3
  %151 = zext nneg i32 %150 to i64
  %152 = getelementptr inbounds nuw i8, ptr %110, i64 %151
  %153 = lshr i32 %.146.i, 16
  %154 = trunc i32 %153 to i8
  store i8 %154, ptr %152, align 1, !tbaa !28
  %155 = lshr i32 %.146.i, 8
  %156 = trunc i32 %155 to i8
  %157 = getelementptr inbounds nuw i8, ptr %152, i64 1
  store i8 %156, ptr %157, align 1, !tbaa !28
  %158 = trunc i32 %.146.i to i8
  %159 = getelementptr inbounds nuw i8, ptr %152, i64 2
  store i8 %158, ptr %159, align 1, !tbaa !28
  br label %167

160:                                              ; preds = %132
  %161 = zext nneg i32 %147 to i64
  %162 = getelementptr inbounds nuw i32, ptr %110, i64 %161
  store i32 %.146.i, ptr %162, align 4, !tbaa !27
  br label %167

163:                                              ; preds = %132
  %164 = trunc i32 %.146.i to i16
  %165 = zext nneg i32 %147 to i64
  %166 = getelementptr inbounds nuw i16, ptr %110, i64 %165
  store i16 %164, ptr %166, align 2, !tbaa !17
  br label %167

167:                                              ; preds = %163, %160, %149
  %168 = shl nuw i32 65536, %146
  %169 = load i32, ptr %142, align 4, !tbaa !27
  %170 = or i32 %169, %168
  store i32 %170, ptr %142, align 4, !tbaa !27
  br label %171

171:                                              ; preds = %167, %128
  %172 = add i32 %.146.i, 1
  %indvars.iv.next.i = add nuw nsw i64 %indvars.iv.i, 1
  %exitcond.not.i = icmp eq i64 %indvars.iv.next.i, 32
  br i1 %exitcond.not.i, label %_ZL20writeStage3RoundtripPKvjPi.exit, label %128, !llvm.loop !181

_ZL20writeStage3RoundtripPKvjPi.exit:             ; preds = %171, %101
  %.173 = phi i32 [ %.274, %101 ], [ -1, %171 ]
  %173 = icmp samesign ult i64 %indvars.iv.next, %37
  br i1 %173, label %38, label %_ZL20writeStage3RoundtripPKvjPi.exit.thread, !llvm.loop !182

_ZL20writeStage3RoundtripPKvjPi.exit.thread:      ; preds = %_ZL20writeStage3RoundtripPKvjPi.exit, %27
  call void @llvm.lifetime.end.p0(i64 128, ptr nonnull %7) #15
  ret void
}